target datalayout = "e-m:e-p270:32:32-p271:32:32-p272:64:64-i64:64-i128:128-f80:128-n8:16:32:64-S128"
target triple = "x86_64-unknown-linux-gnu"

%"class.v8::IndirectHandleBase" = type { ptr }
%"class.v8::Local.253" = type { %"class.v8::LocalBase.254" }
%"class.v8::LocalBase.254" = type { %"class.v8::IndirectHandleBase" }
%"class.v8::Local.251" = type { %"class.v8::LocalBase.252" }
%"class.v8::LocalBase.252" = type { %"class.v8::IndirectHandleBase" }
%"class.node::MemoryRetainer" = type { ptr }
%"class.node::AsyncWrap" = type { %"class.node::BaseObject", i32, i8, double, double }
%"class.node::BaseObject" = type { %"class.node::MemoryRetainer", %"class.v8::Global.259", ptr, ptr }
%"class.v8::Global.259" = type { %"class.v8::PersistentBase.260" }
%"class.v8::PersistentBase.260" = type { %"class.v8::IndirectHandleBase" }
%"class.v8::Local.271" = type { %"class.v8::LocalBase.272" }
%"class.v8::LocalBase.272" = type { %"class.v8::IndirectHandleBase" }
%"class.v8::ReturnValue" = type { ptr }

; Function Attrs: mustprogress nounwind uwtable
define linkonce_odr dso_local noundef double @_ZNK4node9AsyncWrap12get_async_idEv(ptr noundef nonnull align 8 dereferenceable(56) %this) #4 comdat align 2 {
entry:
  %this.addr = alloca ptr, align 8
  store ptr %this, ptr %this.addr, align 8
  %this1 = load ptr, ptr %this.addr, align 8
  %async_id_ = getelementptr inbounds %"class.node::AsyncWrap", ptr %this1, i32 0, i32 3
  %0 = load double, ptr %async_id_, align 8
  ret double %0
}

; Function Attrs: mustprogress nounwind uwtable
define linkonce_odr dso_local noundef ptr @_ZN4node10BaseObject12FromJSObjectEN2v85LocalINS1_5ValueEEE(ptr %value.coerce) #4 comdat align 2 {
entry:
  %this.addr.i43 = alloca ptr, align 8
  %other.addr.i = alloca ptr, align 8
  %this.addr.i.i40 = alloca ptr, align 8
  %other.addr.i.i = alloca ptr, align 8
  %retval.i41 = alloca %"class.v8::Local.271", align 8
  %that.i = alloca %"class.v8::Local.251", align 8
  %ref.tmp.i = alloca %"class.v8::LocalBase.272", align 8
  %slot.addr.i = alloca ptr, align 8
  %this.addr.i.i = alloca ptr, align 8
  %this.addr.i38 = alloca ptr, align 8
  %heap_object_ptr.addr.i32 = alloca i64, align 8
  %offset.addr.i33 = alloca i32, align 4
  %addr.i34 = alloca i64, align 8
  %heap_object_ptr.addr.i26 = alloca i64, align 8
  %offset.addr.i27 = alloca i32, align 4
  %addr.i28 = alloca i64, align 8
  %heap_object_ptr.addr.i21 = alloca i64, align 8
  %offset.addr.i22 = alloca i32, align 4
  %addr.i = alloca i64, align 8
  %heap_object_ptr.addr.i18 = alloca i64, align 8
  %offset.addr.i19 = alloca i32, align 4
  %isolate.addr.i = alloca ptr, align 8
  %heap_object_ptr.addr.i = alloca i64, align 8
  %offset.addr.i = alloca i32, align 4
  %obj.addr.i16 = alloca i64, align 8
  %instance_type.addr.i = alloca i32, align 4
  %obj.addr.i = alloca i64, align 8
  %map.i = alloca i64, align 8
  %value.addr.i = alloca ptr, align 8
  %retval.i11 = alloca ptr, align 8
  %this.addr.i12 = alloca ptr, align 8
  %index.addr.i = alloca i32, align 4
  %obj.i = alloca i64, align 8
  %instance_type.i = alloca i32, align 4
  %offset.i = alloca i32, align 4
  %isolate.i = alloca ptr, align 8
  %value.i = alloca i64, align 8
  %retval.i = alloca %"class.v8::Local.271", align 8
  %this.addr.i8 = alloca ptr, align 8
  %agg.tmp.i = alloca %"class.v8::Local.251", align 8
  %this.addr.i = alloca ptr, align 8
  %value = alloca %"class.v8::Local.251", align 8
  %obj = alloca %"class.v8::Local.271", align 8
  %coerce.dive = getelementptr inbounds %"class.v8::Local.251", ptr %value, i32 0, i32 0
  %coerce.dive1 = getelementptr inbounds %"class.v8::LocalBase.252", ptr %coerce.dive, i32 0, i32 0
  %coerce.dive2 = getelementptr inbounds %"class.v8::IndirectHandleBase", ptr %coerce.dive1, i32 0, i32 0
  store ptr %value.coerce, ptr %coerce.dive2, align 8
  store ptr %value, ptr %this.addr.i8, align 8
  %this1.i9 = load ptr, ptr %this.addr.i8, align 8
  call void @llvm.memcpy.p0.p0.i64(ptr align 8 %agg.tmp.i, ptr align 8 %this1.i9, i64 8, i1 false)
  %0 = load ptr, ptr %agg.tmp.i, align 8
  store ptr %0, ptr %that.i, align 8
  store ptr %ref.tmp.i, ptr %this.addr.i43, align 8
  store ptr %that.i, ptr %other.addr.i, align 8
  %this1.i44 = load ptr, ptr %this.addr.i43, align 8
  %1 = load ptr, ptr %other.addr.i, align 8
  call void @llvm.memcpy.p0.p0.i64(ptr align 8 %this1.i44, ptr align 8 %1, i64 8, i1 false)
  store ptr %retval.i41, ptr %this.addr.i.i40, align 8
  store ptr %ref.tmp.i, ptr %other.addr.i.i, align 8
  %this1.i.i42 = load ptr, ptr %this.addr.i.i40, align 8
  %2 = load ptr, ptr %other.addr.i.i, align 8
  call void @llvm.memcpy.p0.p0.i64(ptr align 8 %this1.i.i42, ptr align 8 %2, i64 8, i1 false)
  %3 = load ptr, ptr %retval.i41, align 8
  store ptr %3, ptr %retval.i, align 8
  %4 = load ptr, ptr %retval.i, align 8
  %coerce.dive3 = getelementptr inbounds %"class.v8::Local.271", ptr %obj, i32 0, i32 0
  %coerce.dive4 = getelementptr inbounds %"class.v8::LocalBase.272", ptr %coerce.dive3, i32 0, i32 0
  %coerce.dive5 = getelementptr inbounds %"class.v8::IndirectHandleBase", ptr %coerce.dive4, i32 0, i32 0
  store ptr %4, ptr %coerce.dive5, align 8
  store ptr %obj, ptr %this.addr.i, align 8
  %this1.i = load ptr, ptr %this.addr.i, align 8
  store ptr %this1.i, ptr %this.addr.i38, align 8
  %this1.i39 = load ptr, ptr %this.addr.i38, align 8
  store ptr %this1.i39, ptr %this.addr.i.i, align 8
  %this1.i.i = load ptr, ptr %this.addr.i.i, align 8
  %5 = load ptr, ptr %this1.i.i, align 8
  store ptr %5, ptr %slot.addr.i, align 8
  %6 = load ptr, ptr %slot.addr.i, align 8
  store ptr %6, ptr %this.addr.i12, align 8
  store i32 1, ptr %index.addr.i, align 4
  %this1.i13 = load ptr, ptr %this.addr.i12, align 8
  store ptr %this1.i13, ptr %value.addr.i, align 8
  %7 = load ptr, ptr %value.addr.i, align 8
  %8 = load i64, ptr %7, align 8
  store i64 %8, ptr %obj.i, align 8
  %9 = load i64, ptr %obj.i, align 8
  store i64 %9, ptr %obj.addr.i, align 8
  %10 = load i64, ptr %obj.addr.i, align 8
  store i64 %10, ptr %heap_object_ptr.addr.i18, align 8
  store i32 0, ptr %offset.addr.i19, align 4
  %11 = load i64, ptr %heap_object_ptr.addr.i18, align 8
  %12 = load i32, ptr %offset.addr.i19, align 4
  store i64 %11, ptr %heap_object_ptr.addr.i26, align 8
  store i32 %12, ptr %offset.addr.i27, align 4
  %13 = load i64, ptr %heap_object_ptr.addr.i26, align 8
  %14 = load i32, ptr %offset.addr.i27, align 4
  %conv.i29 = sext i32 %14 to i64
  %add.i30 = add i64 %13, %conv.i29
  %sub.i31 = sub i64 %add.i30, 1
  store i64 %sub.i31, ptr %addr.i28, align 8
  %15 = load i64, ptr %addr.i28, align 8
  %16 = inttoptr i64 %15 to ptr
  %17 = load i64, ptr %16, align 8
  store i64 %17, ptr %map.i, align 8
  %18 = load i64, ptr %map.i, align 8
  store i64 %18, ptr %heap_object_ptr.addr.i21, align 8
  store i32 12, ptr %offset.addr.i22, align 4
  %19 = load i64, ptr %heap_object_ptr.addr.i21, align 8
  %20 = load i32, ptr %offset.addr.i22, align 4
  %conv.i23 = sext i32 %20 to i64
  %add.i24 = add i64 %19, %conv.i23
  %sub.i25 = sub i64 %add.i24, 1
  store i64 %sub.i25, ptr %addr.i, align 8
  %21 = load i64, ptr %addr.i, align 8
  %22 = inttoptr i64 %21 to ptr
  %23 = load i16, ptr %22, align 2
  %conv.i = zext i16 %23 to i32
  store i32 %conv.i, ptr %instance_type.i, align 4
  %24 = load i32, ptr %instance_type.i, align 4
  store i32 %24, ptr %instance_type.addr.i, align 4
  %25 = load i32, ptr %instance_type.addr.i, align 4
  %cmp.i = icmp eq i32 %25, 1040
  br i1 %cmp.i, label %_ZN2v88internal9Internals20CanHaveInternalFieldEi.exit, label %lor.rhs.i

lor.rhs.i:                                        ; preds = %entry
  %26 = load i32, ptr %instance_type.addr.i, align 4
  %sub.i = sub i32 %26, 1057
  %cmp1.i = icmp ule i32 %sub.i, 1001
  br label %_ZN2v88internal9Internals20CanHaveInternalFieldEi.exit

_ZN2v88internal9Internals20CanHaveInternalFieldEi.exit: ; preds = %lor.rhs.i, %entry
  %27 = phi i1 [ true, %entry ], [ %cmp1.i, %lor.rhs.i ]
  br i1 %27, label %if.then.i, label %if.end.i

if.then.i:                                        ; preds = %_ZN2v88internal9Internals20CanHaveInternalFieldEi.exit
  %28 = load i32, ptr %index.addr.i, align 4
  %mul.i = mul nsw i32 8, %28
  %add.i = add nsw i32 24, %mul.i
  store i32 %add.i, ptr %offset.i, align 4
  %29 = load i64, ptr %obj.i, align 8
  store i64 %29, ptr %obj.addr.i16, align 8
  store ptr null, ptr %isolate.i, align 8
  %30 = load ptr, ptr %isolate.i, align 8
  %31 = load i64, ptr %obj.i, align 8
  %32 = load i32, ptr %offset.i, align 4
  store ptr %30, ptr %isolate.addr.i, align 8
  store i64 %31, ptr %heap_object_ptr.addr.i, align 8
  store i32 %32, ptr %offset.addr.i, align 4
  %33 = load i64, ptr %heap_object_ptr.addr.i, align 8
  %34 = load i32, ptr %offset.addr.i, align 4
  store i64 %33, ptr %heap_object_ptr.addr.i32, align 8
  store i32 %34, ptr %offset.addr.i33, align 4
  %35 = load i64, ptr %heap_object_ptr.addr.i32, align 8
  %36 = load i32, ptr %offset.addr.i33, align 4
  %conv.i35 = sext i32 %36 to i64
  %add.i36 = add i64 %35, %conv.i35
  %sub.i37 = sub i64 %add.i36, 1
  store i64 %sub.i37, ptr %addr.i34, align 8
  %37 = load i64, ptr %addr.i34, align 8
  %38 = inttoptr i64 %37 to ptr
  %39 = load i64, ptr %38, align 8
  store i64 %39, ptr %value.i, align 8
  %40 = load i64, ptr %value.i, align 8
  %41 = inttoptr i64 %40 to ptr
  store ptr %41, ptr %retval.i11, align 8
  br label %_ZN2v86Object34GetAlignedPointerFromInternalFieldEi.exit

if.end.i:                                         ; preds = %_ZN2v88internal9Internals20CanHaveInternalFieldEi.exit
  %42 = load i32, ptr %index.addr.i, align 4
  %call7.i = call noundef ptr @_ZN2v86Object38SlowGetAlignedPointerFromInternalFieldEi(ptr noundef nonnull align 1 dereferenceable(1) %this1.i13, i32 noundef %42) #3
  store ptr %call7.i, ptr %retval.i11, align 8
  br label %_ZN2v86Object34GetAlignedPointerFromInternalFieldEi.exit

_ZN2v86Object34GetAlignedPointerFromInternalFieldEi.exit: ; preds = %if.end.i, %if.then.i
  %43 = load ptr, ptr %retval.i11, align 8
  ret ptr %43
}

; Function Attrs: mustprogress nounwind uwtable
define dso_local void @_ZN4node9AsyncWrap10GetAsyncIdERKN2v820FunctionCallbackInfoINS1_5ValueEEE(ptr noundef nonnull align 8 dereferenceable(20) %args) #4 align 2 {
entry:
  %this.addr.i.i.i = alloca ptr, align 8
  %location.addr.i.i.i = alloca ptr, align 8
  %this.addr.i.i89 = alloca ptr, align 8
  %location.addr.i.i = alloca ptr, align 8
  %retval.i90 = alloca %"class.v8::LocalBase.272", align 8
  %slot.addr.i91 = alloca ptr, align 8
  %this.addr.i.i85 = alloca ptr, align 8
  %other.addr.i.i = alloca ptr, align 8
  %retval.i86 = alloca %"class.v8::Local.271", align 8
  %slot.addr.i87 = alloca ptr, align 8
  %ref.tmp.i = alloca %"class.v8::LocalBase.272", align 8
  %isolate.addr.i.i76 = alloca ptr, align 8
  %index.addr.i.i77 = alloca i32, align 4
  %addr.i.i78 = alloca i64, align 8
  %isolate.addr.i79 = alloca ptr, align 8
  %index.addr.i80 = alloca i32, align 4
  %isolate.addr.i.i = alloca ptr, align 8
  %index.addr.i.i = alloca i32, align 4
  %addr.i.i = alloca i64, align 8
  %isolate.addr.i = alloca ptr, align 8
  %index.addr.i = alloca i32, align 4
  %this.addr.i74 = alloca ptr, align 8
  %this.addr.i72 = alloca ptr, align 8
  %this.addr.i.i66 = alloca ptr, align 8
  %this.addr.i67 = alloca ptr, align 8
  %this.addr.i.i61 = alloca ptr, align 8
  %this.addr.i62 = alloca ptr, align 8
  %this.addr.i58 = alloca ptr, align 8
  %this.addr.i55 = alloca ptr, align 8
  %this.addr.i.i43 = alloca ptr, align 8
  %handle.i44 = alloca %"class.v8::Local.253", align 8
  %this.addr.i45 = alloca ptr, align 8
  %this.addr.i.i = alloca ptr, align 8
  %handle.i = alloca %"class.v8::Local.253", align 8
  %this.addr.i41 = alloca ptr, align 8
  %this.addr.i38 = alloca ptr, align 8
  %slot.addr.i39 = alloca ptr, align 8
  %this.addr.i36 = alloca ptr, align 8
  %slot.addr.i = alloca ptr, align 8
  %this.addr.i34 = alloca ptr, align 8
  %other.addr.i = alloca ptr, align 8
  %that.i = alloca %"class.v8::Local.271", align 8
  %this.addr.i33 = alloca ptr, align 8
  %retval.i29 = alloca %"class.v8::Local.271", align 8
  %this.addr.i30 = alloca ptr, align 8
  %this.addr.i23 = alloca ptr, align 8
  %i.addr.i24 = alloca double, align 8
  %agg.tmp.i25 = alloca %"class.v8::Local.253", align 8
  %this.addr.i21 = alloca ptr, align 8
  %i.addr.i = alloca double, align 8
  %agg.tmp.i = alloca %"class.v8::Local.253", align 8
  %retval.i17 = alloca %"class.v8::ReturnValue", align 8
  %this.addr.i18 = alloca ptr, align 8
  %retval.i = alloca %"class.v8::ReturnValue", align 8
  %this.addr.i = alloca ptr, align 8
  %args.addr = alloca ptr, align 8
  %wrap = alloca ptr, align 8
  %ref.tmp = alloca %"class.v8::ReturnValue", align 8
  %agg.tmp = alloca %"class.v8::Local.251", align 8
  %agg.tmp1 = alloca %"class.v8::Local.271", align 8
  %ref.tmp13 = alloca %"class.v8::ReturnValue", align 8
  store ptr %args, ptr %args.addr, align 8
  %0 = load ptr, ptr %args.addr, align 8
  store ptr %0, ptr %this.addr.i18, align 8
  %this1.i19 = load ptr, ptr %this.addr.i18, align 8
  %1 = load ptr, ptr %this1.i19, align 8
  %arrayidx.i20 = getelementptr inbounds i64, ptr %1, i64 3
  store ptr %retval.i17, ptr %this.addr.i36, align 8
  store ptr %arrayidx.i20, ptr %slot.addr.i, align 8
  %this1.i37 = load ptr, ptr %this.addr.i36, align 8
  %2 = load ptr, ptr %slot.addr.i, align 8
  store ptr %2, ptr %this1.i37, align 8
  %3 = load ptr, ptr %retval.i17, align 8
  %coerce.dive = getelementptr inbounds %"class.v8::ReturnValue", ptr %ref.tmp, i32 0, i32 0
  store ptr %3, ptr %coerce.dive, align 8
  store ptr %ref.tmp, ptr %this.addr.i23, align 8
  store double -1.000000e+00, ptr %i.addr.i24, align 8
  %this1.i26 = load ptr, ptr %this.addr.i23, align 8
  store ptr %this1.i26, ptr %this.addr.i55, align 8
  %this1.i56 = load ptr, ptr %this.addr.i55, align 8
  %4 = load ptr, ptr %this1.i56, align 8
  %arrayidx.i57 = getelementptr inbounds i64, ptr %4, i64 -2
  %5 = load ptr, ptr %arrayidx.i57, align 8
  %6 = load double, ptr %i.addr.i24, align 8
  %call2.i28 = call ptr @_ZN2v86Number3NewEPNS_7IsolateEd(ptr noundef %5, double noundef %6) #3
  store ptr %call2.i28, ptr %agg.tmp.i25, align 8
  %7 = load ptr, ptr %agg.tmp.i25, align 8
  store ptr %7, ptr %handle.i, align 8
  store ptr %this1.i26, ptr %this.addr.i41, align 8
  %this3.i42 = load ptr, ptr %this.addr.i41, align 8
  store ptr %handle.i, ptr %this.addr.i.i, align 8
  %this1.i.i = load ptr, ptr %this.addr.i.i, align 8
  %8 = load ptr, ptr %this1.i.i, align 8
  %cmp.i.i = icmp eq ptr %8, null
  br i1 %cmp.i.i, label %if.then.i, label %if.else.i

if.then.i:                                        ; preds = %entry
  store ptr %this3.i42, ptr %this.addr.i67, align 8
  %this1.i68 = load ptr, ptr %this.addr.i67, align 8
  store ptr %this1.i68, ptr %this.addr.i.i66, align 8
  %this1.i.i69 = load ptr, ptr %this.addr.i.i66, align 8
  %9 = load ptr, ptr %this1.i.i69, align 8
  %arrayidx.i.i70 = getelementptr inbounds i64, ptr %9, i64 -2
  %10 = load ptr, ptr %arrayidx.i.i70, align 8
  store ptr %10, ptr %isolate.addr.i, align 8
  store i32 5, ptr %index.addr.i, align 4
  %11 = load ptr, ptr %isolate.addr.i, align 8
  %12 = load i32, ptr %index.addr.i, align 4
  store ptr %11, ptr %isolate.addr.i.i, align 8
  store i32 %12, ptr %index.addr.i.i, align 4
  %13 = load ptr, ptr %isolate.addr.i.i, align 8
  %14 = ptrtoint ptr %13 to i64
  %add.i.i = add i64 %14, 576
  %15 = load i32, ptr %index.addr.i.i, align 4
  %mul.i.i = mul nsw i32 %15, 8
  %conv.i.i = sext i32 %mul.i.i to i64
  %add1.i.i = add i64 %add.i.i, %conv.i.i
  store i64 %add1.i.i, ptr %addr.i.i, align 8
  %16 = load i64, ptr %addr.i.i, align 8
  %17 = inttoptr i64 %16 to ptr
  %18 = load i64, ptr %17, align 8
  %19 = load ptr, ptr %this3.i42, align 8
  store i64 %18, ptr %19, align 8
  br label %_ZN2v811ReturnValueINS_5ValueEE3SetINS_6NumberEEEvNS_5LocalIT_EE.exit

if.else.i:                                        ; preds = %entry
  store ptr %handle.i, ptr %this.addr.i74, align 8
  %this1.i75 = load ptr, ptr %this.addr.i74, align 8
  %20 = load ptr, ptr %this1.i75, align 8
  %21 = load i64, ptr %20, align 8
  %22 = load ptr, ptr %this3.i42, align 8
  store i64 %21, ptr %22, align 8
  br label %_ZN2v811ReturnValueINS_5ValueEE3SetINS_6NumberEEEvNS_5LocalIT_EE.exit

_ZN2v811ReturnValueINS_5ValueEE3SetINS_6NumberEEEvNS_5LocalIT_EE.exit: ; preds = %if.else.i, %if.then.i
  br label %do.body

do.body:                                          ; preds = %_ZN2v811ReturnValueINS_5ValueEE3SetINS_6NumberEEEvNS_5LocalIT_EE.exit
  %23 = load ptr, ptr %args.addr, align 8
  store ptr %23, ptr %this.addr.i30, align 8
  %this1.i31 = load ptr, ptr %this.addr.i30, align 8
  %24 = load ptr, ptr %this1.i31, align 8
  store ptr %24, ptr %slot.addr.i87, align 8
  %25 = load ptr, ptr %slot.addr.i87, align 8
  store ptr %25, ptr %slot.addr.i91, align 8
  %26 = load ptr, ptr %slot.addr.i91, align 8
  store ptr %retval.i90, ptr %this.addr.i.i89, align 8
  store ptr %26, ptr %location.addr.i.i, align 8
  %this1.i.i92 = load ptr, ptr %this.addr.i.i89, align 8
  %27 = load ptr, ptr %location.addr.i.i, align 8
  store ptr %this1.i.i92, ptr %this.addr.i.i.i, align 8
  store ptr %27, ptr %location.addr.i.i.i, align 8
  %this1.i.i.i = load ptr, ptr %this.addr.i.i.i, align 8
  %28 = load ptr, ptr %location.addr.i.i.i, align 8
  store ptr %28, ptr %this1.i.i.i, align 8
  %29 = load ptr, ptr %retval.i90, align 8
  store ptr %29, ptr %ref.tmp.i, align 8
  store ptr %retval.i86, ptr %this.addr.i.i85, align 8
  store ptr %ref.tmp.i, ptr %other.addr.i.i, align 8
  %this1.i.i88 = load ptr, ptr %this.addr.i.i85, align 8
  %30 = load ptr, ptr %other.addr.i.i, align 8
  call void @llvm.memcpy.p0.p0.i64(ptr align 8 %this1.i.i88, ptr align 8 %30, i64 8, i1 false)
  %31 = load ptr, ptr %retval.i86, align 8
  store ptr %31, ptr %retval.i29, align 8
  %32 = load ptr, ptr %retval.i29, align 8
  %coerce.dive3 = getelementptr inbounds %"class.v8::Local.271", ptr %agg.tmp1, i32 0, i32 0
  %coerce.dive4 = getelementptr inbounds %"class.v8::LocalBase.272", ptr %coerce.dive3, i32 0, i32 0
  %coerce.dive5 = getelementptr inbounds %"class.v8::IndirectHandleBase", ptr %coerce.dive4, i32 0, i32 0
  store ptr %32, ptr %coerce.dive5, align 8
  %coerce.dive6 = getelementptr inbounds %"class.v8::Local.271", ptr %agg.tmp1, i32 0, i32 0
  %coerce.dive7 = getelementptr inbounds %"class.v8::LocalBase.272", ptr %coerce.dive6, i32 0, i32 0
  %coerce.dive8 = getelementptr inbounds %"class.v8::IndirectHandleBase", ptr %coerce.dive7, i32 0, i32 0
  %33 = load ptr, ptr %coerce.dive8, align 8
  store ptr %33, ptr %that.i, align 8
  store ptr %agg.tmp, ptr %this.addr.i33, align 8
  %this3.i = load ptr, ptr %this.addr.i33, align 8
  store ptr %this3.i, ptr %this.addr.i34, align 8
  store ptr %that.i, ptr %other.addr.i, align 8
  %this1.i35 = load ptr, ptr %this.addr.i34, align 8
  %34 = load ptr, ptr %other.addr.i, align 8
  call void @llvm.memcpy.p0.p0.i64(ptr align 8 %this1.i35, ptr align 8 %34, i64 8, i1 false)
  %coerce.dive9 = getelementptr inbounds %"class.v8::Local.251", ptr %agg.tmp, i32 0, i32 0
  %coerce.dive10 = getelementptr inbounds %"class.v8::LocalBase.252", ptr %coerce.dive9, i32 0, i32 0
  %coerce.dive11 = getelementptr inbounds %"class.v8::IndirectHandleBase", ptr %coerce.dive10, i32 0, i32 0
  %35 = load ptr, ptr %coerce.dive11, align 8
  %call12 = call noundef ptr @_ZN4node10BaseObject12FromJSObjectEN2v85LocalINS1_5ValueEEE(ptr %35)
  store ptr %call12, ptr %wrap, align 8
  %36 = load ptr, ptr %wrap, align 8
  %cmp = icmp eq ptr %36, null
  br i1 %cmp, label %if.then, label %if.end

if.then:                                          ; preds = %do.body
  br label %return

if.end:                                           ; preds = %do.body
  br label %do.end

do.end:                                           ; preds = %if.end
  %37 = load ptr, ptr %args.addr, align 8
  store ptr %37, ptr %this.addr.i, align 8
  %this1.i = load ptr, ptr %this.addr.i, align 8
  %38 = load ptr, ptr %this1.i, align 8
  %arrayidx.i = getelementptr inbounds i64, ptr %38, i64 3
  store ptr %retval.i, ptr %this.addr.i38, align 8
  store ptr %arrayidx.i, ptr %slot.addr.i39, align 8
  %this1.i40 = load ptr, ptr %this.addr.i38, align 8
  %39 = load ptr, ptr %slot.addr.i39, align 8
  store ptr %39, ptr %this1.i40, align 8
  %40 = load ptr, ptr %retval.i, align 8
  %coerce.dive15 = getelementptr inbounds %"class.v8::ReturnValue", ptr %ref.tmp13, i32 0, i32 0
  store ptr %40, ptr %coerce.dive15, align 8
  %41 = load ptr, ptr %wrap, align 8
  %call16 = call noundef double @_ZNK4node9AsyncWrap12get_async_idEv(ptr noundef nonnull align 8 dereferenceable(56) %41)
  store ptr %ref.tmp13, ptr %this.addr.i21, align 8
  store double %call16, ptr %i.addr.i, align 8
  %this1.i22 = load ptr, ptr %this.addr.i21, align 8
  store ptr %this1.i22, ptr %this.addr.i58, align 8
  %this1.i59 = load ptr, ptr %this.addr.i58, align 8
  %42 = load ptr, ptr %this1.i59, align 8
  %arrayidx.i60 = getelementptr inbounds i64, ptr %42, i64 -2
  %43 = load ptr, ptr %arrayidx.i60, align 8
  %44 = load double, ptr %i.addr.i, align 8
  %call2.i = call ptr @_ZN2v86Number3NewEPNS_7IsolateEd(ptr noundef %43, double noundef %44) #3
  store ptr %call2.i, ptr %agg.tmp.i, align 8
  %45 = load ptr, ptr %agg.tmp.i, align 8
  store ptr %45, ptr %handle.i44, align 8
  store ptr %this1.i22, ptr %this.addr.i45, align 8
  %this3.i46 = load ptr, ptr %this.addr.i45, align 8
  store ptr %handle.i44, ptr %this.addr.i.i43, align 8
  %this1.i.i47 = load ptr, ptr %this.addr.i.i43, align 8
  %46 = load ptr, ptr %this1.i.i47, align 8
  %cmp.i.i48 = icmp eq ptr %46, null
  br i1 %cmp.i.i48, label %if.then.i52, label %if.else.i50

if.then.i52:                                      ; preds = %do.end
  store ptr %this3.i46, ptr %this.addr.i62, align 8
  %this1.i63 = load ptr, ptr %this.addr.i62, align 8
  store ptr %this1.i63, ptr %this.addr.i.i61, align 8
  %this1.i.i64 = load ptr, ptr %this.addr.i.i61, align 8
  %47 = load ptr, ptr %this1.i.i64, align 8
  %arrayidx.i.i = getelementptr inbounds i64, ptr %47, i64 -2
  %48 = load ptr, ptr %arrayidx.i.i, align 8
  store ptr %48, ptr %isolate.addr.i79, align 8
  store i32 5, ptr %index.addr.i80, align 4
  %49 = load ptr, ptr %isolate.addr.i79, align 8
  %50 = load i32, ptr %index.addr.i80, align 4
  store ptr %49, ptr %isolate.addr.i.i76, align 8
  store i32 %50, ptr %index.addr.i.i77, align 4
  %51 = load ptr, ptr %isolate.addr.i.i76, align 8
  %52 = ptrtoint ptr %51 to i64
  %add.i.i81 = add i64 %52, 576
  %53 = load i32, ptr %index.addr.i.i77, align 4
  %mul.i.i82 = mul nsw i32 %53, 8
  %conv.i.i83 = sext i32 %mul.i.i82 to i64
  %add1.i.i84 = add i64 %add.i.i81, %conv.i.i83
  store i64 %add1.i.i84, ptr %addr.i.i78, align 8
  %54 = load i64, ptr %addr.i.i78, align 8
  %55 = inttoptr i64 %54 to ptr
  %56 = load i64, ptr %55, align 8
  %57 = load ptr, ptr %this3.i46, align 8
  store i64 %56, ptr %57, align 8
  br label %_ZN2v811ReturnValueINS_5ValueEE3SetINS_6NumberEEEvNS_5LocalIT_EE.exit54

if.else.i50:                                      ; preds = %do.end
  store ptr %handle.i44, ptr %this.addr.i72, align 8
  %this1.i73 = load ptr, ptr %this.addr.i72, align 8
  %58 = load ptr, ptr %this1.i73, align 8
  %59 = load i64, ptr %58, align 8
  %60 = load ptr, ptr %this3.i46, align 8
  store i64 %59, ptr %60, align 8
  br label %_ZN2v811ReturnValueINS_5ValueEE3SetINS_6NumberEEEvNS_5LocalIT_EE.exit54

_ZN2v811ReturnValueINS_5ValueEE3SetINS_6NumberEEEvNS_5LocalIT_EE.exit54: ; preds = %if.else.i50, %if.then.i52
  br label %return

return:                                           ; preds = %_ZN2v811ReturnValueINS_5ValueEE3SetINS_6NumberEEEvNS_5LocalIT_EE.exit54, %if.then
  ret void
}