; Function Attrs: mustprogress nounwind uwtable
define dso_local void @_ZN4node9AsyncWrap10GetAsyncIdERKN2v820FunctionCallbackInfoINS1_5ValueEEE(ptr nocapture noundef nonnull readonly align 8 dereferenceable(20) %args) #3 align 2 {
entry:
  %0 = load ptr, ptr %args, align 8
  %arrayidx.i20 = getelementptr inbounds i8, ptr %0, i64 24
  %arrayidx.i57 = getelementptr inbounds i8, ptr %0, i64 8
  %1 = load ptr, ptr %arrayidx.i57, align 8
  %call2.i28 = tail call ptr @_ZN2v86Number3NewEPNS_7IsolateEd(ptr noundef %1, double noundef -1.000000e+00) #19
  %cmp.i.i = icmp eq ptr %call2.i28, null
  br i1 %cmp.i.i, label %if.then.i, label %do.body

if.then.i:                                        ; preds = %entry
  %2 = load ptr, ptr %arrayidx.i57, align 8
  %3 = ptrtoint ptr %2 to i64
  %add1.i.i = add i64 %3, 616
  %4 = inttoptr i64 %add1.i.i to ptr
  br label %do.body

do.body:                                          ; preds = %entry, %if.then.i
  %storemerge.in = phi ptr [ %4, %if.then.i ], [ %call2.i28, %entry ]
  %storemerge = load i64, ptr %storemerge.in, align 8
  store i64 %storemerge, ptr %arrayidx.i20, align 8
  %5 = load ptr, ptr %args, align 8
  %6 = load i64, ptr %5, align 8
  %sub.i31.i = add i64 %6, -1
  %7 = inttoptr i64 %sub.i31.i to ptr
  %8 = load i64, ptr %7, align 8
  %sub.i25.i = add i64 %8, 11
  %9 = inttoptr i64 %sub.i25.i to ptr
  %10 = load i16, ptr %9, align 2
  %conv.i.i = zext i16 %10 to i32
  %cmp.i.i12 = icmp eq i16 %10, 1040
  %sub.i.i = add nsw i32 %conv.i.i, -1057
  %cmp1.i.i = icmp ult i32 %sub.i.i, 1002
  %11 = select i1 %cmp.i.i12, i1 true, i1 %cmp1.i.i
  br i1 %11, label %if.then.i.i, label %if.end.i.i

if.then.i.i:                                      ; preds = %do.body
  %sub.i37.i = add i64 %6, 31
  %12 = inttoptr i64 %sub.i37.i to ptr
  %13 = load i64, ptr %12, align 8
  %14 = inttoptr i64 %13 to ptr
  br label %_ZN4node10BaseObject12FromJSObjectEN2v85LocalINS1_5ValueEEE.exit

if.end.i.i:                                       ; preds = %do.body
  %call7.i.i = tail call noundef ptr @_ZN2v86Object38SlowGetAlignedPointerFromInternalFieldEi(ptr noundef nonnull align 1 dereferenceable(1) %5, i32 noundef 1) #19
  br label %_ZN4node10BaseObject12FromJSObjectEN2v85LocalINS1_5ValueEEE.exit

_ZN4node10BaseObject12FromJSObjectEN2v85LocalINS1_5ValueEEE.exit: ; preds = %if.then.i.i, %if.end.i.i
  %retval.i11.0.i = phi ptr [ %14, %if.then.i.i ], [ %call7.i.i, %if.end.i.i ]
  %cmp = icmp eq ptr %retval.i11.0.i, null
  br i1 %cmp, label %return, label %do.end

do.end:                                           ; preds = %_ZN4node10BaseObject12FromJSObjectEN2v85LocalINS1_5ValueEEE.exit
  %15 = load ptr, ptr %args, align 8
  %arrayidx.i = getelementptr inbounds i8, ptr %15, i64 24
  %async_id_.i = getelementptr inbounds i8, ptr %retval.i11.0.i, i64 40
  %16 = load double, ptr %async_id_.i, align 8
  %arrayidx.i60 = getelementptr inbounds i8, ptr %15, i64 8
  %17 = load ptr, ptr %arrayidx.i60, align 8
  %call2.i = tail call ptr @_ZN2v86Number3NewEPNS_7IsolateEd(ptr noundef %17, double noundef %16) #19
  %cmp.i.i48 = icmp eq ptr %call2.i, null
  br i1 %cmp.i.i48, label %if.then.i52, label %return.sink.split

if.then.i52:                                      ; preds = %do.end
  %18 = load ptr, ptr %arrayidx.i60, align 8
  %19 = ptrtoint ptr %18 to i64
  %add1.i.i84 = add i64 %19, 616
  %20 = inttoptr i64 %add1.i.i84 to ptr
  br label %return.sink.split

return.sink.split:                                ; preds = %do.end, %if.then.i52
  %.sink13 = phi ptr [ %20, %if.then.i52 ], [ %call2.i, %do.end ]
  %21 = load i64, ptr %.sink13, align 8
  store i64 %21, ptr %arrayidx.i, align 8
  br label %return

return:                                           ; preds = %return.sink.split, %_ZN4node10BaseObject12FromJSObjectEN2v85LocalINS1_5ValueEEE.exit
  ret void
}